   1               		.file	"sd_raw.c"
   2               	__SREG__ = 0x3f
   3               	__SP_H__ = 0x3e
   4               	__SP_L__ = 0x3d
   5               	__CCP__  = 0x34
   6               	__tmp_reg__ = 0
   7               	__zero_reg__ = 1
  15               	.Ltext0:
  16               	.global	sd_raw_available
  18               	sd_raw_available:
  19               	.LFB3:
  20               	.LM1:
  21               	/* prologue: function */
  22               	/* frame size = 0 */
  23               	.LM2:
  24 0000 81E0      		ldi r24,lo8(1)
  25               	/* epilogue start */
  26 0002 0895      		ret
  27               	.LFE3:
  29               	.global	sd_raw_locked
  31               	sd_raw_locked:
  32               	.LFB4:
  33               	.LM3:
  34               	/* prologue: function */
  35               	/* frame size = 0 */
  36               	.LM4:
  37 0004 80E0      		ldi r24,lo8(0)
  38               	/* epilogue start */
  39 0006 0895      		ret
  40               	.LFE4:
  43               	sd_raw_send_command:
  44               	.LFB7:
  45               	.LM5:
  46               	.LVL0:
  47               	/* prologue: function */
  48               	/* frame size = 0 */
  49 0008 282F      		mov r18,r24
  50               	.LBB73:
  51               	.LBB74:
  52               	.LM6:
  53 000a 8FEF      		ldi r24,lo8(-1)
  54               	.LVL1:
  55 000c 8EBD      		out 78-32,r24
  56               	.L6:
  57               	.LM7:
  58 000e 0DB4      		in __tmp_reg__,77-32
  59 0010 07FE      		sbrs __tmp_reg__,7
  60 0012 00C0      		rjmp .L6
  61               	.LM8:
  62 0014 8DB5      		in r24,77-32
  63 0016 8F77      		andi r24,lo8(127)
  64 0018 8DBD      		out 77-32,r24
  65               	.LM9:
  66 001a 8EB5      		in r24,78-32
  67               	.LBE74:
  68               	.LBE73:
  69               	.LM10:
  70 001c 822F      		mov r24,r18
  71 001e 8064      		ori r24,lo8(64)
  72               	.LBB75:
  73               	.LBB76:
  74               	.LM11:
  75 0020 8EBD      		out 78-32,r24
  76               	.L7:
  77               	.LM12:
  78 0022 0DB4      		in __tmp_reg__,77-32
  79 0024 07FE      		sbrs __tmp_reg__,7
  80 0026 00C0      		rjmp .L7
  81               	.LM13:
  82 0028 8DB5      		in r24,77-32
  83 002a 8F77      		andi r24,lo8(127)
  84 002c 8DBD      		out 77-32,r24
  85               	.LBE76:
  86               	.LBE75:
  87               	.LM14:
  88 002e 872F      		mov r24,r23
  89 0030 9927      		clr r25
  90 0032 AA27      		clr r26
  91 0034 BB27      		clr r27
  92               	.LBB77:
  93               	.LBB78:
  94               	.LM15:
  95 0036 8EBD      		out 78-32,r24
  96               	.L8:
  97               	.LM16:
  98 0038 0DB4      		in __tmp_reg__,77-32
  99 003a 07FE      		sbrs __tmp_reg__,7
 100 003c 00C0      		rjmp .L8
 101               	.LM17:
 102 003e 8DB5      		in r24,77-32
 103 0040 8F77      		andi r24,lo8(127)
 104 0042 8DBD      		out 77-32,r24
 105               	.LBE78:
 106               	.LBE77:
 107               	.LM18:
 108 0044 CB01      		movw r24,r22
 109 0046 AA27      		clr r26
 110 0048 BB27      		clr r27
 111               	.LBB79:
 112               	.LBB80:
 113               	.LM19:
 114 004a 8EBD      		out 78-32,r24
 115               	.L9:
 116               	.LM20:
 117 004c 0DB4      		in __tmp_reg__,77-32
 118 004e 07FE      		sbrs __tmp_reg__,7
 119 0050 00C0      		rjmp .L9
 120               	.LM21:
 121 0052 8DB5      		in r24,77-32
 122 0054 8F77      		andi r24,lo8(127)
 123 0056 8DBD      		out 77-32,r24
 124               	.LBE80:
 125               	.LBE79:
 126               	.LM22:
 127 0058 BB27      		clr r27
 128 005a A72F      		mov r26,r23
 129 005c 962F      		mov r25,r22
 130 005e 852F      		mov r24,r21
 131               	.LBB81:
 132               	.LBB82:
 133               	.LM23:
 134 0060 8EBD      		out 78-32,r24
 135               	.L10:
 136               	.LM24:
 137 0062 0DB4      		in __tmp_reg__,77-32
 138 0064 07FE      		sbrs __tmp_reg__,7
 139 0066 00C0      		rjmp .L10
 140               	.LM25:
 141 0068 8DB5      		in r24,77-32
 142 006a 8F77      		andi r24,lo8(127)
 143 006c 8DBD      		out 77-32,r24
 144               	.LBE82:
 145               	.LBE81:
 146               	.LBB83:
 147               	.LBB84:
 148               	.LM26:
 149 006e 4EBD      		out 78-32,r20
 150               	.L11:
 151               	.LM27:
 152 0070 0DB4      		in __tmp_reg__,77-32
 153 0072 07FE      		sbrs __tmp_reg__,7
 154 0074 00C0      		rjmp .L11
 155               	.LM28:
 156 0076 8DB5      		in r24,77-32
 157 0078 8F77      		andi r24,lo8(127)
 158 007a 8DBD      		out 77-32,r24
 159               	.LBE84:
 160               	.LBE83:
 161               	.LM29:
 162 007c 2223      		tst r18
 163 007e 01F0      		breq .L13
 164 0080 2830      		cpi r18,lo8(8)
 165 0082 01F4      		brne .L34
 166 0084 00C0      		rjmp .L36
 167               	.L13:
 168               	.LBB85:
 169               	.LBB86:
 170               	.LM30:
 171 0086 85E9      		ldi r24,lo8(-107)
 172 0088 8EBD      		out 78-32,r24
 173               	.L15:
 174               	.LM31:
 175 008a 0DB4      		in __tmp_reg__,77-32
 176 008c 07FE      		sbrs __tmp_reg__,7
 177 008e 00C0      		rjmp .L15
 178 0090 00C0      		rjmp .L35
 179               	.L36:
 180               	.LBE86:
 181               	.LBE85:
 182               	.LBB87:
 183               	.LBB88:
 184               	.LM32:
 185 0092 87E8      		ldi r24,lo8(-121)
 186 0094 8EBD      		out 78-32,r24
 187               	.L17:
 188               	.LM33:
 189 0096 0DB4      		in __tmp_reg__,77-32
 190 0098 07FE      		sbrs __tmp_reg__,7
 191 009a 00C0      		rjmp .L17
 192 009c 00C0      		rjmp .L35
 193               	.L34:
 194               	.LBE88:
 195               	.LBE87:
 196               	.LBB89:
 197               	.LBB90:
 198               	.LM34:
 199 009e 8FEF      		ldi r24,lo8(-1)
 200 00a0 8EBD      		out 78-32,r24
 201               	.L18:
 202               	.LM35:
 203 00a2 0DB4      		in __tmp_reg__,77-32
 204 00a4 07FE      		sbrs __tmp_reg__,7
 205 00a6 00C0      		rjmp .L18
 206               	.L35:
 207               	.LM36:
 208 00a8 8DB5      		in r24,77-32
 209 00aa 8F77      		andi r24,lo8(127)
 210 00ac 8DBD      		out 77-32,r24
 211 00ae 90E0      		ldi r25,lo8(0)
 212               	.LVL2:
 213               	.LBE90:
 214               	.LBE89:
 215               	.LBB91:
 216               	.LBB92:
 217               	.LBB93:
 218               	.LM37:
 219 00b0 2FEF      		ldi r18,lo8(-1)
 220               	.LVL3:
 221               	.L22:
 222 00b2 2EBD      		out 78-32,r18
 223               	.L19:
 224               	.LM38:
 225 00b4 0DB4      		in __tmp_reg__,77-32
 226 00b6 07FE      		sbrs __tmp_reg__,7
 227 00b8 00C0      		rjmp .L19
 228               	.LM39:
 229 00ba 8DB5      		in r24,77-32
 230               	.LVL4:
 231 00bc 8F77      		andi r24,lo8(127)
 232 00be 8DBD      		out 77-32,r24
 233               	.LM40:
 234 00c0 8EB5      		in r24,78-32
 235               	.LVL5:
 236               	.LBE93:
 237               	.LBE92:
 238               	.LM41:
 239 00c2 8F3F      		cpi r24,lo8(-1)
 240 00c4 01F4      		brne .L20
 241               	.LM42:
 242 00c6 9F5F      		subi r25,lo8(-(1))
 243 00c8 9A30      		cpi r25,lo8(10)
 244 00ca 01F4      		brne .L22
 245               	.L20:
 246               	.LVL6:
 247               	.LBE91:
 248               	.LM43:
 249 00cc 0895      		ret
 250               	.LFE7:
 252               	.global	sd_raw_get_info
 254               	sd_raw_get_info:
 255               	.LFB13:
 256               	.LM44:
 257               	.LVL7:
 258 00ce CF92      		push r12
 259 00d0 DF92      		push r13
 260 00d2 EF92      		push r14
 261 00d4 FF92      		push r15
 262 00d6 0F93      		push r16
 263 00d8 1F93      		push r17
 264 00da CF93      		push r28
 265 00dc DF93      		push r29
 266               	/* prologue: function */
 267               	/* frame size = 0 */
 268 00de EC01      		movw r28,r24
 269               	.LM45:
 270 00e0 0097      		sbiw r24,0
 271 00e2 01F0      		breq .L83
 272               	.L38:
 273               	.LM46:
 274 00e4 89E1      		ldi r24,lo8(25)
 275               	.LVL8:
 276 00e6 FE01      		movw r30,r28
 277 00e8 1192      		st Z+,__zero_reg__
 278 00ea 8A95      	        dec r24
 279 00ec 01F4      		brne .-6
 280               	.LM47:
 281 00ee 2898      		cbi 37-32,0
 282               	.LM48:
 283 00f0 8AE0      		ldi r24,lo8(10)
 284 00f2 40E0      		ldi r20,lo8(0)
 285 00f4 50E0      		ldi r21,hi8(0)
 286 00f6 60E0      		ldi r22,hlo8(0)
 287 00f8 70E0      		ldi r23,hhi8(0)
 288 00fa 0E94 0000 		call sd_raw_send_command
 289 00fe 8823      		tst r24
 290 0100 01F0      		breq .L40
 291               	.L84:
 292               	.LM49:
 293 0102 289A      		sbi 37-32,0
 294               	.LVL9:
 295               	.L83:
 296 0104 80E0      		ldi r24,lo8(0)
 297 0106 00C0      		rjmp .L39
 298               	.L40:
 299               	.LBB94:
 300               	.LBB95:
 301               	.LM50:
 302 0108 9FEF      		ldi r25,lo8(-1)
 303               	.L72:
 304 010a 9EBD      		out 78-32,r25
 305               	.L41:
 306               	.LM51:
 307 010c 0DB4      		in __tmp_reg__,77-32
 308 010e 07FE      		sbrs __tmp_reg__,7
 309 0110 00C0      		rjmp .L41
 310               	.LM52:
 311 0112 8DB5      		in r24,77-32
 312 0114 8F77      		andi r24,lo8(127)
 313 0116 8DBD      		out 77-32,r24
 314               	.LM53:
 315 0118 8EB5      		in r24,78-32
 316               	.LBE95:
 317               	.LBE94:
 318               	.LM54:
 319 011a 8E3F      		cpi r24,lo8(-2)
 320 011c 01F4      		brne .L72
 321 011e 1C2F      		mov r17,r28
 322 0120 CE01      		movw r24,r28
 323               	.LVL10:
 324 0122 FC01      		movw r30,r24
 325 0124 60E6      		ldi r22,lo8(96)
 326 0126 70E0      		ldi r23,hi8(96)
 327               	.LBB96:
 328               	.LBB97:
 329               	.LBB98:
 330               	.LBB99:
 331               	.LM55:
 332 0128 0FEF      		ldi r16,lo8(-1)
 333               	.LVL11:
 334               	.L53:
 335               	.LBE99:
 336               	.LBE98:
 337               	.LBE97:
 338               	.LBE96:
 339               	.LM56:
 340 012a 9E2F      		mov r25,r30
 341 012c 911B      		sub r25,r17
 342               	.LBB103:
 343               	.LBB102:
 344               	.LBB101:
 345               	.LBB100:
 346               	.LM57:
 347 012e 0EBD      		out 78-32,r16
 348               	.L42:
 349               	.LM58:
 350 0130 0DB4      		in __tmp_reg__,77-32
 351 0132 07FE      		sbrs __tmp_reg__,7
 352 0134 00C0      		rjmp .L42
 353               	.LM59:
 354 0136 8DB5      		in r24,77-32
 355 0138 8F77      		andi r24,lo8(127)
 356 013a 8DBD      		out 77-32,r24
 357               	.LM60:
 358 013c 2EB5      		in r18,78-32
 359               	.LBE100:
 360               	.LBE101:
 361               	.LM61:
 362 013e 9830      		cpi r25,lo8(8)
 363 0140 00F4      		brsh .L51
 364 0142 9330      		cpi r25,lo8(3)
 365 0144 00F4      		brsh .L46
 366 0146 9923      		tst r25
 367 0148 01F0      		breq .L44
 368 014a 00C0      		rjmp .L85
 369               	.L51:
 370 014c 9D30      		cpi r25,lo8(13)
 371 014e 00F4      		brsh .L52
 372 0150 9930      		cpi r25,lo8(9)
 373 0152 00F4      		brsh .L48
 374 0154 00C0      		rjmp .L86
 375               	.L52:
 376 0156 9D30      		cpi r25,lo8(13)
 377 0158 01F0      		breq .L49
 378 015a 9E30      		cpi r25,lo8(14)
 379 015c 01F4      		brne .L43
 380 015e 00C0      		rjmp .L87
 381               	.L44:
 382               	.LM62:
 383 0160 2883      		st Y,r18
 384 0162 00C0      		rjmp .L43
 385               	.L85:
 386               	.LM63:
 387 0164 2083      		st Z,r18
 388 0166 00C0      		rjmp .L43
 389               	.L46:
 390               	.LM64:
 391 0168 2183      		std Z+1,r18
 392 016a 00C0      		rjmp .L43
 393               	.L86:
 394               	.LM65:
 395 016c 2A87      		std Y+10,r18
 396 016e 00C0      		rjmp .L43
 397               	.L48:
 398               	.LM66:
 399 0170 30E0      		ldi r19,lo8(0)
 400 0172 40E0      		ldi r20,lo8(0)
 401 0174 50E0      		ldi r21,hi8(0)
 402 0176 062E      		mov r0,r22
 403 0178 00C0      		rjmp 2f
 404 017a 220F      	1:	lsl r18
 405 017c 331F      		rol r19
 406 017e 441F      		rol r20
 407 0180 551F      		rol r21
 408 0182 0A94      	2:	dec r0
 409 0184 02F4      		brpl 1b
 410               	.LVL12:
 411 0186 8B85      		ldd r24,Y+11
 412 0188 9C85      		ldd r25,Y+12
 413 018a AD85      		ldd r26,Y+13
 414 018c BE85      		ldd r27,Y+14
 415 018e 822B      		or r24,r18
 416 0190 932B      		or r25,r19
 417 0192 A42B      		or r26,r20
 418 0194 B52B      		or r27,r21
 419 0196 8B87      		std Y+11,r24
 420 0198 9C87      		std Y+12,r25
 421 019a AD87      		std Y+13,r26
 422 019c BE87      		std Y+14,r27
 423 019e 00C0      		rjmp .L43
 424               	.L49:
 425               	.LM67:
 426 01a0 2295      		swap r18
 427 01a2 207F      		andi r18,lo8(-16)
 428 01a4 2F87      		std Y+15,r18
 429 01a6 00C0      		rjmp .L43
 430               	.L87:
 431               	.LM68:
 432 01a8 922F      		mov r25,r18
 433               	.LVL13:
 434 01aa 9295      		swap r25
 435 01ac 9F70      		andi r25,lo8(15)
 436 01ae 8F85      		ldd r24,Y+15
 437 01b0 892B      		or r24,r25
 438 01b2 8F87      		std Y+15,r24
 439               	.LM69:
 440 01b4 2F70      		andi r18,lo8(15)
 441 01b6 288B      		std Y+16,r18
 442               	.LVL14:
 443               	.L43:
 444 01b8 3196      		adiw r30,1
 445 01ba 6850      		subi r22,lo8(-(-8))
 446 01bc 7040      		sbci r23,hi8(-(-8))
 447               	.LBE102:
 448               	.LM70:
 449 01be 8FEF      		ldi r24,hi8(-48)
 450 01c0 603D      		cpi r22,lo8(-48)
 451 01c2 7807      		cpc r23,r24
 452 01c4 01F0      		breq .+2
 453 01c6 00C0      		rjmp .L53
 454               	.LBE103:
 455               	.LM71:
 456 01c8 89E0      		ldi r24,lo8(9)
 457 01ca 40E0      		ldi r20,lo8(0)
 458 01cc 50E0      		ldi r21,hi8(0)
 459 01ce 60E0      		ldi r22,hlo8(0)
 460 01d0 70E0      		ldi r23,hhi8(0)
 461               	.LVL15:
 462 01d2 0E94 0000 		call sd_raw_send_command
 463               	.LVL16:
 464 01d6 8823      		tst r24
 465 01d8 01F0      		breq .+2
 466 01da 00C0      		rjmp .L84
 467               	.L54:
 468               	.LBB104:
 469               	.LBB105:
 470               	.LM72:
 471 01dc 9FEF      		ldi r25,lo8(-1)
 472               	.L71:
 473 01de 9EBD      		out 78-32,r25
 474               	.L55:
 475               	.LM73:
 476 01e0 0DB4      		in __tmp_reg__,77-32
 477 01e2 07FE      		sbrs __tmp_reg__,7
 478 01e4 00C0      		rjmp .L55
 479               	.LM74:
 480 01e6 8DB5      		in r24,77-32
 481 01e8 8F77      		andi r24,lo8(127)
 482 01ea 8DBD      		out 77-32,r24
 483               	.LM75:
 484 01ec 8EB5      		in r24,78-32
 485               	.LBE105:
 486               	.LBE104:
 487               	.LM76:
 488 01ee 8E3F      		cpi r24,lo8(-2)
 489 01f0 01F4      		brne .L71
 490 01f2 F0E0      		ldi r31,lo8(0)
 491               	.LVL17:
 492 01f4 70E0      		ldi r23,lo8(0)
 493               	.LVL18:
 494 01f6 20E0      		ldi r18,lo8(0)
 495 01f8 30E0      		ldi r19,hi8(0)
 496 01fa 40E0      		ldi r20,hlo8(0)
 497 01fc 50E0      		ldi r21,hhi8(0)
 498               	.LVL19:
 499 01fe 60E0      		ldi r22,lo8(0)
 500               	.LVL20:
 501               	.LBB106:
 502               	.LBB107:
 503               	.LBB108:
 504               	.LBB109:
 505               	.LM77:
 506 0200 1FEF      		ldi r17,lo8(-1)
 507               	.LBE109:
 508               	.LBE108:
 509               	.LM78:
 510 0202 E1E0      		ldi r30,lo8(1)
 511               	.LVL21:
 512               	.L69:
 513               	.LBB111:
 514               	.LBB110:
 515               	.LM79:
 516 0204 1EBD      		out 78-32,r17
 517               	.L56:
 518               	.LM80:
 519 0206 0DB4      		in __tmp_reg__,77-32
 520 0208 07FE      		sbrs __tmp_reg__,7
 521 020a 00C0      		rjmp .L56
 522               	.LM81:
 523 020c 8DB5      		in r24,77-32
 524               	.LVL22:
 525 020e 8F77      		andi r24,lo8(127)
 526 0210 8DBD      		out 77-32,r24
 527               	.LM82:
 528 0212 8EB5      		in r24,78-32
 529               	.LVL23:
 530               	.LBE110:
 531               	.LBE111:
 532               	.LM83:
 533 0214 6E30      		cpi r22,lo8(14)
 534 0216 01F4      		brne .L57
 535               	.LM84:
 536 0218 90E0      		ldi r25,lo8(0)
 537               	.LVL24:
 538 021a 86FD      		sbrc r24,6
 539               	.LVL25:
 540               	.LM85:
 541 021c ED8B      		std Y+21,r30
 542               	.L58:
 543               	.LM86:
 544 021e 85FD      		sbrc r24,5
 545               	.LM87:
 546 0220 EE8B      		std Y+22,r30
 547               	.L59:
 548               	.LM88:
 549 0222 84FD      		sbrc r24,4
 550               	.LM89:
 551 0224 EF8B      		std Y+23,r30
 552               	.L60:
 553               	.LM90:
 554 0226 8C70      		andi r24,lo8(12)
 555 0228 9070      		andi r25,hi8(12)
 556 022a 9595      		asr r25
 557 022c 8795      		ror r24
 558 022e 9595      		asr r25
 559 0230 8795      		ror r24
 560               	.LVL26:
 561 0232 888F      		std Y+24,r24
 562 0234 00C0      		rjmp .L61
 563               	.LVL27:
 564               	.L57:
 565               	.LM91:
 566 0236 6730      		cpi r22,lo8(7)
 567 0238 01F0      		breq .L64
 568 023a 6830      		cpi r22,lo8(8)
 569 023c 00F4      		brsh .L68
 570 023e 6530      		cpi r22,lo8(5)
 571 0240 01F0      		breq .L62
 572 0242 6630      		cpi r22,lo8(6)
 573 0244 01F0      		breq .+2
 574 0246 00C0      		rjmp .L61
 575 0248 00C0      		rjmp .L88
 576               	.L68:
 577 024a 6930      		cpi r22,lo8(9)
 578 024c 01F0      		breq .L66
 579 024e 6930      		cpi r22,lo8(9)
 580 0250 00F0      		brlo .L65
 581 0252 6A30      		cpi r22,lo8(10)
 582 0254 01F0      		breq .+2
 583 0256 00C0      		rjmp .L61
 584 0258 00C0      		rjmp .L89
 585               	.L62:
 586               	.LM92:
 587 025a F82F      		mov r31,r24
 588 025c FF70      		andi r31,lo8(15)
 589 025e 00C0      		rjmp .L61
 590               	.L88:
 591               	.LM93:
 592 0260 90E0      		ldi r25,lo8(0)
 593               	.LVL28:
 594 0262 A0E0      		ldi r26,lo8(0)
 595 0264 B0E0      		ldi r27,hi8(0)
 596 0266 8370      		andi r24,lo8(3)
 597 0268 9070      		andi r25,hi8(3)
 598 026a A070      		andi r26,hlo8(3)
 599 026c B070      		andi r27,hhi8(3)
 600               	.LVL29:
 601               	.LM94:
 602 026e 2227      		clr r18
 603 0270 382F      		mov r19,r24
 604 0272 492F      		mov r20,r25
 605 0274 5A2F      		mov r21,r26
 606 0276 00C0      		rjmp .L61
 607               	.LVL30:
 608               	.L64:
 609               	.LM95:
 610 0278 90E0      		ldi r25,lo8(0)
 611               	.LVL31:
 612 027a A0E0      		ldi r26,lo8(0)
 613 027c B0E0      		ldi r27,hi8(0)
 614               	.LVL32:
 615 027e 282B      		or r18,r24
 616 0280 392B      		or r19,r25
 617 0282 4A2B      		or r20,r26
 618 0284 5B2B      		or r21,r27
 619               	.LM96:
 620 0286 A2E0      		ldi r26,2
 621 0288 220F      	1:	lsl r18
 622 028a 331F      		rol r19
 623 028c 441F      		rol r20
 624 028e 551F      		rol r21
 625 0290 AA95      		dec r26
 626 0292 01F4      		brne 1b
 627               	.LVL33:
 628 0294 00C0      		rjmp .L61
 629               	.LVL34:
 630               	.L65:
 631               	.LM97:
 632 0296 8295      		swap r24
 633 0298 8695      		lsr r24
 634 029a 8695      		lsr r24
 635 029c 8370      		andi r24,lo8(3)
 636 029e 90E0      		ldi r25,lo8(0)
 637               	.LVL35:
 638 02a0 A0E0      		ldi r26,lo8(0)
 639 02a2 B0E0      		ldi r27,hi8(0)
 640               	.LVL36:
 641 02a4 282B      		or r18,r24
 642 02a6 392B      		or r19,r25
 643 02a8 4A2B      		or r20,r26
 644 02aa 5B2B      		or r21,r27
 645               	.LVL37:
 646               	.LM98:
 647 02ac 2F5F      		subi r18,lo8(-(1))
 648 02ae 3F4F      		sbci r19,hi8(-(1))
 649 02b0 4F4F      		sbci r20,hlo8(-(1))
 650 02b2 5F4F      		sbci r21,hhi8(-(1))
 651 02b4 00C0      		rjmp .L61
 652               	.LVL38:
 653               	.L66:
 654               	.LM99:
 655 02b6 782F      		mov r23,r24
 656 02b8 7370      		andi r23,lo8(3)
 657               	.LM100:
 658 02ba 770F      		lsl r23
 659 02bc 00C0      		rjmp .L61
 660               	.L89:
 661               	.LM101:
 662 02be 881F      		rol r24
 663 02c0 8827      		clr r24
 664 02c2 881F      		rol r24
 665 02c4 782B      		or r23,r24
 666               	.LM102:
 667 02c6 8F2F      		mov r24,r31
 668               	.LVL39:
 669 02c8 90E0      		ldi r25,lo8(0)
 670               	.LVL40:
 671 02ca 0296      		adiw r24,2
 672               	.LVL41:
 673 02cc 870F      		add r24,r23
 674 02ce 911D      		adc r25,__zero_reg__
 675               	.LVL42:
 676 02d0 6901      		movw r12,r18
 677 02d2 7A01      		movw r14,r20
 678 02d4 00C0      		rjmp 2f
 679 02d6 CC0C      	1:	lsl r12
 680 02d8 DD1C      		rol r13
 681 02da EE1C      		rol r14
 682 02dc FF1C      		rol r15
 683 02de 8A95      	2:	dec r24
 684 02e0 02F4      		brpl 1b
 685 02e2 C98A      		std Y+17,r12
 686 02e4 DA8A      		std Y+18,r13
 687 02e6 EB8A      		std Y+19,r14
 688 02e8 FC8A      		std Y+20,r15
 689               	.LVL43:
 690               	.L61:
 691               	.LBE107:
 692               	.LM103:
 693 02ea 6F5F      		subi r22,lo8(-(1))
 694 02ec 6231      		cpi r22,lo8(18)
 695 02ee 01F0      		breq .+2
 696 02f0 00C0      		rjmp .L69
 697               	.LBE106:
 698               	.LM104:
 699 02f2 289A      		sbi 37-32,0
 700 02f4 81E0      		ldi r24,lo8(1)
 701               	.LVL44:
 702               	.L39:
 703               	/* epilogue start */
 704               	.LM105:
 705 02f6 DF91      		pop r29
 706 02f8 CF91      		pop r28
 707               	.LVL45:
 708 02fa 1F91      		pop r17
 709 02fc 0F91      		pop r16
 710 02fe FF90      		pop r15
 711 0300 EF90      		pop r14
 712 0302 DF90      		pop r13
 713 0304 CF90      		pop r12
 714 0306 0895      		ret
 715               	.LFE13:
 717               	.global	sd_raw_write
 719               	sd_raw_write:
 720               	.LFB10:
 721               	.LM106:
 722               	.LVL46:
 723 0308 2F92      		push r2
 724 030a 3F92      		push r3
 725 030c 4F92      		push r4
 726 030e 5F92      		push r5
 727 0310 6F92      		push r6
 728 0312 7F92      		push r7
 729 0314 8F92      		push r8
 730 0316 9F92      		push r9
 731 0318 AF92      		push r10
 732 031a BF92      		push r11
 733 031c CF92      		push r12
 734 031e DF92      		push r13
 735 0320 EF92      		push r14
 736 0322 FF92      		push r15
 737 0324 0F93      		push r16
 738 0326 1F93      		push r17
 739 0328 CF93      		push r28
 740 032a DF93      		push r29
 741               	/* prologue: function */
 742               	/* frame size = 0 */
 743 032c 4B01      		movw r8,r22
 744 032e 5C01      		movw r10,r24
 745 0330 2A01      		movw r4,r20
 746 0332 3901      		movw r6,r18
 747               	.LBB112:
 748               	.LBB113:
 749               	.LBB114:
 750               	.LM107:
 751 0334 3324      		clr r3
 752 0336 3A94      		dec r3
 753               	.LBE114:
 754               	.LBE113:
 755               	.LM108:
 756 0338 2224      		clr r2
 757 033a 2394      		inc r2
 758 033c 00C0      		rjmp .L91
 759               	.LVL47:
 760               	.L110:
 761               	.LM109:
 762 033e E401      		movw r28,r8
 763               	.LVL48:
 764 0340 D170      		andi r29,hi8(511)
 765               	.LM110:
 766 0342 CE01      		movw r24,r28
 767 0344 A0E0      		ldi r26,lo8(0)
 768 0346 B0E0      		ldi r27,hi8(0)
 769               	.LVL49:
 770 0348 8501      		movw r16,r10
 771 034a 7401      		movw r14,r8
 772 034c E81A      		sub r14,r24
 773 034e F90A      		sbc r15,r25
 774 0350 0A0B      		sbc r16,r26
 775 0352 1B0B      		sbc r17,r27
 776               	.LM111:
 777 0354 C12C      		mov r12,__zero_reg__
 778 0356 B2E0      		ldi r27,hi8(512)
 779 0358 DB2E      		mov r13,r27
 780 035a CC1A      		sub r12,r28
 781 035c DD0A      		sbc r13,r29
 782 035e 6C14      		cp r6,r12
 783 0360 7D04      		cpc r7,r13
 784 0362 00F4      		brsh .L92
 785               	.LVL50:
 786 0364 6301      		movw r12,r6
 787               	.L92:
 788               	.LM112:
 789 0366 8091 0000 		lds r24,raw_block_address
 790 036a 9091 0000 		lds r25,(raw_block_address)+1
 791 036e A091 0000 		lds r26,(raw_block_address)+2
 792 0372 B091 0000 		lds r27,(raw_block_address)+3
 793 0376 E816      		cp r14,r24
 794 0378 F906      		cpc r15,r25
 795 037a 0A07      		cpc r16,r26
 796 037c 1B07      		cpc r17,r27
 797 037e 01F0      		breq .L93
 798               	.LM113:
 799 0380 0E94 0000 		call sd_raw_sync
 800               	.LVL51:
 801 0384 8823      		tst r24
 802 0386 01F4      		brne .+2
 803 0388 00C0      		rjmp .L94
 804               	.LM114:
 805 038a 2097      		sbiw r28,0
 806 038c 01F4      		brne .L95
 807 038e 80E0      		ldi r24,lo8(512)
 808 0390 C816      		cp r12,r24
 809 0392 82E0      		ldi r24,hi8(512)
 810 0394 D806      		cpc r13,r24
 811 0396 00F4      		brsh .L96
 812               	.L95:
 813               	.LM115:
 814 0398 C801      		movw r24,r16
 815 039a B701      		movw r22,r14
 816 039c 40E0      		ldi r20,lo8(raw_block)
 817 039e 50E0      		ldi r21,hi8(raw_block)
 818 03a0 20E0      		ldi r18,lo8(512)
 819 03a2 32E0      		ldi r19,hi8(512)
 820 03a4 0E94 0000 		call sd_raw_read
 821 03a8 8823      		tst r24
 822 03aa 01F4      		brne .+2
 823 03ac 00C0      		rjmp .L94
 824               	.L96:
 825               	.LM116:
 826 03ae E092 0000 		sts raw_block_address,r14
 827 03b2 F092 0000 		sts (raw_block_address)+1,r15
 828 03b6 0093 0000 		sts (raw_block_address)+2,r16
 829 03ba 1093 0000 		sts (raw_block_address)+3,r17
 830               	.LVL52:
 831               	.L93:
 832               	.LM117:
 833 03be 80E0      		ldi r24,lo8(raw_block)
 834 03c0 4816      		cp r4,r24
 835 03c2 80E0      		ldi r24,hi8(raw_block)
 836 03c4 5806      		cpc r5,r24
 837 03c6 01F0      		breq .L97
 838               	.LM118:
 839 03c8 9E01      		movw r18,r28
 840 03ca 2050      		subi r18,lo8(-(raw_block))
 841 03cc 3040      		sbci r19,hi8(-(raw_block))
 842 03ce C901      		movw r24,r18
 843 03d0 B201      		movw r22,r4
 844               	.LVL53:
 845 03d2 A601      		movw r20,r12
 846               	.LVL54:
 847 03d4 0E94 0000 		call memcpy
 848               	.LVL55:
 849               	.LM119:
 850 03d8 1092 0000 		sts raw_block_written,__zero_reg__
 851               	.LM120:
 852 03dc 6C14      		cp r6,r12
 853 03de 7D04      		cpc r7,r13
 854               	.LVL56:
 855 03e0 01F4      		brne .+2
 856 03e2 00C0      		rjmp .L99
 857               	.LVL57:
 858               	.L97:
 859               	.LM121:
 860 03e4 2898      		cbi 37-32,0
 861               	.LM122:
 862 03e6 88E1      		ldi r24,lo8(24)
 863 03e8 B801      		movw r22,r16
 864 03ea A701      		movw r20,r14
 865 03ec 0E94 0000 		call sd_raw_send_command
 866               	.LVL58:
 867 03f0 8823      		tst r24
 868 03f2 01F0      		breq .L100
 869               	.LM123:
 870 03f4 289A      		sbi 37-32,0
 871 03f6 00C0      		rjmp .L94
 872               	.L100:
 873               	.LBB116:
 874               	.LBB117:
 875               	.LM124:
 876 03f8 8EEF      		ldi r24,lo8(-2)
 877 03fa 8EBD      		out 78-32,r24
 878               	.L102:
 879               	.LM125:
 880 03fc 0DB4      		in __tmp_reg__,77-32
 881 03fe 07FE      		sbrs __tmp_reg__,7
 882 0400 00C0      		rjmp .L102
 883               	.LM126:
 884 0402 8DB5      		in r24,77-32
 885 0404 8F77      		andi r24,lo8(127)
 886 0406 8DBD      		out 77-32,r24
 887 0408 E0E0      		ldi r30,lo8(raw_block)
 888 040a F0E0      		ldi r31,hi8(raw_block)
 889               	.LVL59:
 890               	.L104:
 891               	.LBE117:
 892               	.LBE116:
 893               	.LBB118:
 894               	.LM127:
 895 040c 8191      		ld r24,Z+
 896               	.LBB119:
 897               	.LBB120:
 898               	.LM128:
 899 040e 8EBD      		out 78-32,r24
 900               	.L103:
 901               	.LM129:
 902 0410 0DB4      		in __tmp_reg__,77-32
 903 0412 07FE      		sbrs __tmp_reg__,7
 904 0414 00C0      		rjmp .L103
 905               	.LM130:
 906 0416 8DB5      		in r24,77-32
 907 0418 8F77      		andi r24,lo8(127)
 908 041a 8DBD      		out 77-32,r24
 909               	.LBE120:
 910               	.LBE119:
 911               	.LM131:
 912 041c 80E0      		ldi r24,hi8(raw_block+512)
 913 041e E030      		cpi r30,lo8(raw_block+512)
 914 0420 F807      		cpc r31,r24
 915 0422 01F4      		brne .L104
 916               	.LBE118:
 917               	.LBB121:
 918               	.LBB115:
 919               	.LM132:
 920 0424 3EBC      		out 78-32,r3
 921               	.L105:
 922               	.LM133:
 923 0426 0DB4      		in __tmp_reg__,77-32
 924 0428 07FE      		sbrs __tmp_reg__,7
 925 042a 00C0      		rjmp .L105
 926               	.LM134:
 927 042c 8DB5      		in r24,77-32
 928 042e 8F77      		andi r24,lo8(127)
 929 0430 8DBD      		out 77-32,r24
 930               	.LBE115:
 931               	.LBE121:
 932               	.LBB122:
 933               	.LBB123:
 934               	.LM135:
 935 0432 3EBC      		out 78-32,r3
 936               	.L106:
 937               	.LM136:
 938 0434 0DB4      		in __tmp_reg__,77-32
 939 0436 07FE      		sbrs __tmp_reg__,7
 940 0438 00C0      		rjmp .L106
 941               	.LM137:
 942 043a 8DB5      		in r24,77-32
 943 043c 8F77      		andi r24,lo8(127)
 944 043e 8DBD      		out 77-32,r24
 945               	.L108:
 946               	.LBE123:
 947               	.LBE122:
 948               	.LBB124:
 949               	.LBB125:
 950               	.LM138:
 951 0440 3EBC      		out 78-32,r3
 952               	.L107:
 953               	.LM139:
 954 0442 0DB4      		in __tmp_reg__,77-32
 955 0444 07FE      		sbrs __tmp_reg__,7
 956 0446 00C0      		rjmp .L107
 957               	.LM140:
 958 0448 8DB5      		in r24,77-32
 959 044a 8F77      		andi r24,lo8(127)
 960 044c 8DBD      		out 77-32,r24
 961               	.LM141:
 962 044e 8EB5      		in r24,78-32
 963               	.LBE125:
 964               	.LBE124:
 965               	.LM142:
 966 0450 8F3F      		cpi r24,lo8(-1)
 967 0452 01F4      		brne .L108
 968               	.LBB126:
 969               	.LBB127:
 970               	.LM143:
 971 0454 8EBD      		out 78-32,r24
 972               	.L109:
 973               	.LM144:
 974 0456 0DB4      		in __tmp_reg__,77-32
 975 0458 07FE      		sbrs __tmp_reg__,7
 976 045a 00C0      		rjmp .L109
 977               	.LM145:
 978 045c 8DB5      		in r24,77-32
 979 045e 8F77      		andi r24,lo8(127)
 980 0460 8DBD      		out 77-32,r24
 981               	.LM146:
 982 0462 8EB5      		in r24,78-32
 983               	.LBE127:
 984               	.LBE126:
 985               	.LM147:
 986 0464 289A      		sbi 37-32,0
 987               	.LM148:
 988 0466 4C0C      		add r4,r12
 989 0468 5D1C      		adc r5,r13
 990               	.LM149:
 991 046a C601      		movw r24,r12
 992 046c A0E0      		ldi r26,lo8(0)
 993 046e B0E0      		ldi r27,hi8(0)
 994               	.LVL60:
 995 0470 880E      		add r8,r24
 996 0472 991E      		adc r9,r25
 997 0474 AA1E      		adc r10,r26
 998 0476 BB1E      		adc r11,r27
 999               	.LM150:
 1000 0478 6C18      		sub r6,r12
 1001 047a 7D08      		sbc r7,r13
 1002               	.LM151:
 1003 047c 2092 0000 		sts raw_block_written,r2
 1004               	.LVL61:
 1005               	.L91:
 1006               	.LBE112:
 1007               	.LM152:
 1008 0480 6114      		cp r6,__zero_reg__
 1009 0482 7104      		cpc r7,__zero_reg__
 1010 0484 01F0      		breq .+2
 1011 0486 00C0      		rjmp .L110
 1012               	.L99:
 1013 0488 81E0      		ldi r24,lo8(1)
 1014 048a 00C0      		rjmp .L101
 1015               	.LVL62:
 1016               	.L94:
 1017 048c 80E0      		ldi r24,lo8(0)
 1018               	.LVL63:
 1019               	.L101:
 1020               	/* epilogue start */
 1021               	.LM153:
 1022 048e DF91      		pop r29
 1023 0490 CF91      		pop r28
 1024               	.LVL64:
 1025 0492 1F91      		pop r17
 1026 0494 0F91      		pop r16
 1027 0496 FF90      		pop r15
 1028 0498 EF90      		pop r14
 1029               	.LVL65:
 1030 049a DF90      		pop r13
 1031 049c CF90      		pop r12
 1032               	.LVL66:
 1033 049e BF90      		pop r11
 1034 04a0 AF90      		pop r10
 1035 04a2 9F90      		pop r9
 1036 04a4 8F90      		pop r8
 1037               	.LVL67:
 1038 04a6 7F90      		pop r7
 1039 04a8 6F90      		pop r6
 1040               	.LVL68:
 1041 04aa 5F90      		pop r5
 1042 04ac 4F90      		pop r4
 1043               	.LVL69:
 1044 04ae 3F90      		pop r3
 1045 04b0 2F90      		pop r2
 1046 04b2 0895      		ret
 1047               	.LFE10:
 1049               	.global	sd_raw_sync
 1051               	sd_raw_sync:
 1052               	.LFB12:
 1053               	.LM154:
 1054               	/* prologue: function */
 1055               	/* frame size = 0 */
 1056               	.LM155:
 1057 04b4 8091 0000 		lds r24,raw_block_written
 1058 04b8 8823      		tst r24
 1059 04ba 01F0      		breq .L121
 1060 04bc 81E0      		ldi r24,lo8(1)
 1061 04be 0895      		ret
 1062               	.L121:
 1063               	.LM156:
 1064 04c0 6091 0000 		lds r22,raw_block_address
 1065 04c4 7091 0000 		lds r23,(raw_block_address)+1
 1066 04c8 8091 0000 		lds r24,(raw_block_address)+2
 1067 04cc 9091 0000 		lds r25,(raw_block_address)+3
 1068 04d0 40E0      		ldi r20,lo8(raw_block)
 1069 04d2 50E0      		ldi r21,hi8(raw_block)
 1070 04d4 20E0      		ldi r18,lo8(512)
 1071 04d6 32E0      		ldi r19,hi8(512)
 1072 04d8 0E94 0000 		call sd_raw_write
 1073 04dc 8823      		tst r24
 1074 04de 01F0      		breq .L122
 1075               	.LM157:
 1076 04e0 81E0      		ldi r24,lo8(1)
 1077 04e2 8093 0000 		sts raw_block_written,r24
 1078               	.L122:
 1079               	.LM158:
 1080 04e6 0895      		ret
 1081               	.LFE12:
 1083               	.global	sd_raw_read
 1085               	sd_raw_read:
 1086               	.LFB8:
 1087               	.LM159:
 1088               	.LVL70:
 1089 04e8 3F92      		push r3
 1090 04ea 4F92      		push r4
 1091 04ec 5F92      		push r5
 1092 04ee 6F92      		push r6
 1093 04f0 7F92      		push r7
 1094 04f2 8F92      		push r8
 1095 04f4 9F92      		push r9
 1096 04f6 AF92      		push r10
 1097 04f8 BF92      		push r11
 1098 04fa CF92      		push r12
 1099 04fc DF92      		push r13
 1100 04fe EF92      		push r14
 1101 0500 FF92      		push r15
 1102 0502 0F93      		push r16
 1103 0504 1F93      		push r17
 1104 0506 CF93      		push r28
 1105 0508 DF93      		push r29
 1106               	/* prologue: function */
 1107               	/* frame size = 0 */
 1108 050a 3B01      		movw r6,r22
 1109 050c 4C01      		movw r8,r24
 1110 050e 6A01      		movw r12,r20
 1111 0510 2901      		movw r4,r18
 1112               	.LBB128:
 1113               	.LBB129:
 1114               	.LBB130:
 1115               	.LM160:
 1116 0512 3324      		clr r3
 1117 0514 3A94      		dec r3
 1118 0516 00C0      		rjmp .L126
 1119               	.LVL71:
 1120               	.L142:
 1121               	.LBE130:
 1122               	.LBE129:
 1123               	.LBE128:
 1124               	.LM161:
 1125 0518 1FEF      		ldi r17,lo8(511)
 1126 051a A12E      		mov r10,r17
 1127 051c 11E0      		ldi r17,hi8(511)
 1128 051e B12E      		mov r11,r17
 1129 0520 A620      		and r10,r6
 1130 0522 B720      		and r11,r7
 1131               	.LM162:
 1132 0524 C501      		movw r24,r10
 1133               	.LVL72:
 1134 0526 A0E0      		ldi r26,lo8(0)
 1135 0528 B0E0      		ldi r27,hi8(0)
 1136               	.LVL73:
 1137 052a 8401      		movw r16,r8
 1138 052c 7301      		movw r14,r6
 1139 052e E81A      		sub r14,r24
 1140 0530 F90A      		sbc r15,r25
 1141 0532 0A0B      		sbc r16,r26
 1142 0534 1B0B      		sbc r17,r27
 1143               	.LM163:
 1144 0536 C0E0      		ldi r28,lo8(512)
 1145 0538 D2E0      		ldi r29,hi8(512)
 1146 053a CA19      		sub r28,r10
 1147 053c DB09      		sbc r29,r11
 1148 053e 4C16      		cp r4,r28
 1149 0540 5D06      		cpc r5,r29
 1150 0542 00F4      		brsh .L127
 1151 0544 E201      		movw r28,r4
 1152               	.L127:
 1153               	.LM164:
 1154 0546 8091 0000 		lds r24,raw_block_address
 1155 054a 9091 0000 		lds r25,(raw_block_address)+1
 1156 054e A091 0000 		lds r26,(raw_block_address)+2
 1157 0552 B091 0000 		lds r27,(raw_block_address)+3
 1158 0556 E816      		cp r14,r24
 1159 0558 F906      		cpc r15,r25
 1160 055a 0A07      		cpc r16,r26
 1161 055c 1B07      		cpc r17,r27
 1162 055e 01F4      		brne .+2
 1163 0560 00C0      		rjmp .L128
 1164               	.LBB144:
 1165               	.LM165:
 1166 0562 0E94 0000 		call sd_raw_sync
 1167               	.LVL74:
 1168 0566 8823      		tst r24
 1169 0568 01F4      		brne .+2
 1170 056a 00C0      		rjmp .L130
 1171               	.LM166:
 1172 056c 2898      		cbi 37-32,0
 1173               	.LM167:
 1174 056e 81E1      		ldi r24,lo8(17)
 1175 0570 B801      		movw r22,r16
 1176 0572 A701      		movw r20,r14
 1177 0574 0E94 0000 		call sd_raw_send_command
 1178 0578 8823      		tst r24
 1179 057a 01F0      		breq .L144
 1180               	.LM168:
 1181 057c 289A      		sbi 37-32,0
 1182 057e 80E0      		ldi r24,lo8(0)
 1183 0580 00C0      		rjmp .L130
 1184               	.L144:
 1185               	.LBB132:
 1186               	.LBB131:
 1187               	.LM169:
 1188 0582 3EBC      		out 78-32,r3
 1189               	.L132:
 1190               	.LM170:
 1191 0584 0DB4      		in __tmp_reg__,77-32
 1192 0586 07FE      		sbrs __tmp_reg__,7
 1193 0588 00C0      		rjmp .L132
 1194               	.LM171:
 1195 058a 8DB5      		in r24,77-32
 1196 058c 8F77      		andi r24,lo8(127)
 1197 058e 8DBD      		out 77-32,r24
 1198               	.LM172:
 1199 0590 8EB5      		in r24,78-32
 1200               	.LBE131:
 1201               	.LBE132:
 1202               	.LM173:
 1203 0592 8E3F      		cpi r24,lo8(-2)
 1204 0594 01F4      		brne .L144
 1205 0596 E0E0      		ldi r30,lo8(raw_block)
 1206 0598 F0E0      		ldi r31,hi8(raw_block)
 1207               	.LVL75:
 1208               	.L135:
 1209               	.LBB133:
 1210               	.LBB134:
 1211               	.LBB135:
 1212               	.LM174:
 1213 059a 3EBC      		out 78-32,r3
 1214               	.L133:
 1215               	.LM175:
 1216 059c 0DB4      		in __tmp_reg__,77-32
 1217 059e 07FE      		sbrs __tmp_reg__,7
 1218 05a0 00C0      		rjmp .L133
 1219               	.LM176:
 1220 05a2 8DB5      		in r24,77-32
 1221 05a4 8F77      		andi r24,lo8(127)
 1222 05a6 8DBD      		out 77-32,r24
 1223               	.LM177:
 1224 05a8 8EB5      		in r24,78-32
 1225               	.LBE135:
 1226               	.LBE134:
 1227               	.LM178:
 1228 05aa 8083      		st Z,r24
 1229               	.LM179:
 1230 05ac 80E0      		ldi r24,hi8(raw_block+511)
 1231 05ae E030      		cpi r30,lo8(raw_block+511)
 1232 05b0 F807      		cpc r31,r24
 1233 05b2 01F0      		breq .L134
 1234               	.LM180:
 1235 05b4 3196      		adiw r30,1
 1236 05b6 00C0      		rjmp .L135
 1237               	.L134:
 1238               	.LBE133:
 1239               	.LM181:
 1240 05b8 E092 0000 		sts raw_block_address,r14
 1241 05bc F092 0000 		sts (raw_block_address)+1,r15
 1242 05c0 0093 0000 		sts (raw_block_address)+2,r16
 1243 05c4 1093 0000 		sts (raw_block_address)+3,r17
 1244               	.LM182:
 1245 05c8 9501      		movw r18,r10
 1246 05ca 2050      		subi r18,lo8(-(raw_block))
 1247 05cc 3040      		sbci r19,hi8(-(raw_block))
 1248 05ce C601      		movw r24,r12
 1249               	.LVL76:
 1250 05d0 B901      		movw r22,r18
 1251 05d2 AE01      		movw r20,r28
 1252               	.LVL77:
 1253 05d4 0E94 0000 		call memcpy
 1254               	.LVL78:
 1255               	.LBB136:
 1256               	.LBB137:
 1257               	.LM183:
 1258 05d8 3EBC      		out 78-32,r3
 1259               	.L137:
 1260               	.LM184:
 1261 05da 0DB4      		in __tmp_reg__,77-32
 1262 05dc 07FE      		sbrs __tmp_reg__,7
 1263 05de 00C0      		rjmp .L137
 1264               	.LM185:
 1265 05e0 8DB5      		in r24,77-32
 1266 05e2 8F77      		andi r24,lo8(127)
 1267 05e4 8DBD      		out 77-32,r24
 1268               	.LM186:
 1269 05e6 8EB5      		in r24,78-32
 1270               	.LBE137:
 1271               	.LBE136:
 1272               	.LBB138:
 1273               	.LBB139:
 1274               	.LM187:
 1275 05e8 3EBC      		out 78-32,r3
 1276               	.L138:
 1277               	.LM188:
 1278 05ea 0DB4      		in __tmp_reg__,77-32
 1279 05ec 07FE      		sbrs __tmp_reg__,7
 1280 05ee 00C0      		rjmp .L138
 1281               	.LM189:
 1282 05f0 8DB5      		in r24,77-32
 1283 05f2 8F77      		andi r24,lo8(127)
 1284 05f4 8DBD      		out 77-32,r24
 1285               	.LM190:
 1286 05f6 8EB5      		in r24,78-32
 1287               	.LBE139:
 1288               	.LBE138:
 1289               	.LM191:
 1290 05f8 289A      		sbi 37-32,0
 1291               	.LBB140:
 1292               	.LBB141:
 1293               	.LM192:
 1294 05fa 3EBC      		out 78-32,r3
 1295               	.L139:
 1296               	.LM193:
 1297 05fc 0DB4      		in __tmp_reg__,77-32
 1298 05fe 07FE      		sbrs __tmp_reg__,7
 1299 0600 00C0      		rjmp .L139
 1300               	.LBE141:
 1301               	.LBE140:
 1302               	.LM194:
 1303 0602 CC0E      		add r12,r28
 1304 0604 DD1E      		adc r13,r29
 1305               	.LVL79:
 1306               	.LBB143:
 1307               	.LBB142:
 1308               	.LM195:
 1309 0606 8DB5      		in r24,77-32
 1310 0608 8F77      		andi r24,lo8(127)
 1311 060a 8DBD      		out 77-32,r24
 1312               	.LM196:
 1313 060c 8EB5      		in r24,78-32
 1314 060e 00C0      		rjmp .L140
 1315               	.LVL80:
 1316               	.L128:
 1317               	.LBE142:
 1318               	.LBE143:
 1319               	.LBE144:
 1320               	.LM197:
 1321 0610 9501      		movw r18,r10
 1322 0612 2050      		subi r18,lo8(-(raw_block))
 1323 0614 3040      		sbci r19,hi8(-(raw_block))
 1324 0616 C601      		movw r24,r12
 1325               	.LVL81:
 1326 0618 B901      		movw r22,r18
 1327 061a AE01      		movw r20,r28
 1328               	.LVL82:
 1329 061c 0E94 0000 		call memcpy
 1330               	.LVL83:
 1331               	.LM198:
 1332 0620 CC0E      		add r12,r28
 1333 0622 DD1E      		adc r13,r29
 1334               	.LVL84:
 1335               	.L140:
 1336               	.LM199:
 1337 0624 4C1A      		sub r4,r28
 1338 0626 5D0A      		sbc r5,r29
 1339               	.LM200:
 1340 0628 CE01      		movw r24,r28
 1341 062a A0E0      		ldi r26,lo8(0)
 1342 062c B0E0      		ldi r27,hi8(0)
 1343               	.LVL85:
 1344 062e 680E      		add r6,r24
 1345 0630 791E      		adc r7,r25
 1346 0632 8A1E      		adc r8,r26
 1347 0634 9B1E      		adc r9,r27
 1348               	.LVL86:
 1349               	.L126:
 1350               	.LM201:
 1351 0636 4114      		cp r4,__zero_reg__
 1352 0638 5104      		cpc r5,__zero_reg__
 1353 063a 01F0      		breq .+2
 1354 063c 00C0      		rjmp .L142
 1355 063e 81E0      		ldi r24,lo8(1)
 1356               	.LVL87:
 1357               	.L130:
 1358               	/* epilogue start */
 1359               	.LM202:
 1360 0640 DF91      		pop r29
 1361 0642 CF91      		pop r28
 1362               	.LVL88:
 1363 0644 1F91      		pop r17
 1364 0646 0F91      		pop r16
 1365 0648 FF90      		pop r15
 1366 064a EF90      		pop r14
 1367               	.LVL89:
 1368 064c DF90      		pop r13
 1369 064e CF90      		pop r12
 1370               	.LVL90:
 1371 0650 BF90      		pop r11
 1372 0652 AF90      		pop r10
 1373               	.LVL91:
 1374 0654 9F90      		pop r9
 1375 0656 8F90      		pop r8
 1376 0658 7F90      		pop r7
 1377 065a 6F90      		pop r6
 1378               	.LVL92:
 1379 065c 5F90      		pop r5
 1380 065e 4F90      		pop r4
 1381               	.LVL93:
 1382 0660 3F90      		pop r3
 1383 0662 0895      		ret
 1384               	.LFE8:
 1386               	.global	sd_raw_read_interval
 1388               	sd_raw_read_interval:
 1389               	.LFB9:
 1390               	.LM203:
 1391               	.LVL94:
 1392 0664 2F92      		push r2
 1393 0666 3F92      		push r3
 1394 0668 4F92      		push r4
 1395 066a 5F92      		push r5
 1396 066c 6F92      		push r6
 1397 066e 7F92      		push r7
 1398 0670 8F92      		push r8
 1399 0672 9F92      		push r9
 1400 0674 AF92      		push r10
 1401 0676 BF92      		push r11
 1402 0678 CF92      		push r12
 1403               	.LVL95:
 1404 067a DF92      		push r13
 1405 067c EF92      		push r14
 1406               	.LVL96:
 1407 067e FF92      		push r15
 1408 0680 0F93      		push r16
 1409               	.LVL97:
 1410 0682 1F93      		push r17
 1411 0684 DF93      		push r29
 1412 0686 CF93      		push r28
 1413 0688 00D0      		rcall .
 1414 068a 00D0      		rcall .
 1415 068c CDB7      		in r28,__SP_L__
 1416 068e DEB7      		in r29,__SP_H__
 1417               	/* prologue: function */
 1418               	/* frame size = 4 */
 1419 0690 4B01      		movw r8,r22
 1420 0692 5C01      		movw r10,r24
 1421 0694 3A01      		movw r6,r20
 1422 0696 3C83      		std Y+4,r19
 1423 0698 2B83      		std Y+3,r18
 1424 069a 2701      		movw r4,r14
 1425               	.LVL98:
 1426 069c DA82      		std Y+2,r13
 1427 069e C982      		std Y+1,r12
 1428               	.LVL99:
 1429               	.LM204:
 1430 06a0 4115      		cp r20,__zero_reg__
 1431 06a2 5105      		cpc r21,__zero_reg__
 1432 06a4 01F0      		breq .L152
 1433               	.LVL100:
 1434 06a6 2115      		cp r18,__zero_reg__
 1435 06a8 3105      		cpc r19,__zero_reg__
 1436 06aa 01F0      		breq .L152
 1437               	.LVL101:
 1438 06ac 0217      		cp r16,r18
 1439 06ae 1307      		cpc r17,r19
 1440               	.LVL102:
 1441 06b0 00F0      		brlo .L152
 1442 06b2 E114      		cp r14,__zero_reg__
 1443 06b4 F104      		cpc r15,__zero_reg__
 1444 06b6 01F0      		breq .L152
 1445               	.LVL103:
 1446 06b8 1901      		movw r2,r18
 1447 06ba 3094      		com r3
 1448 06bc 2194      		neg r2
 1449 06be 3108      		sbc r3,__zero_reg__
 1450 06c0 3394      		inc r3
 1451 06c2 021B      		sub r16,r18
 1452 06c4 130B      		sbc r17,r19
 1453               	.LVL104:
 1454               	.LM205:
 1455 06c6 6901      		movw r12,r18
 1456 06c8 EE24      		clr r14
 1457 06ca FF24      		clr r15
 1458               	.LVL105:
 1459               	.L154:
 1460               	.LM206:
 1461 06cc C501      		movw r24,r10
 1462 06ce B401      		movw r22,r8
 1463 06d0 A301      		movw r20,r6
 1464 06d2 2B81      		ldd r18,Y+3
 1465 06d4 3C81      		ldd r19,Y+4
 1466 06d6 0E94 0000 		call sd_raw_read
 1467 06da 8823      		tst r24
 1468 06dc 01F0      		breq .L152
 1469               	.LVL106:
 1470               	.LM207:
 1471 06de C301      		movw r24,r6
 1472 06e0 B501      		movw r22,r10
 1473 06e2 A401      		movw r20,r8
 1474 06e4 2981      		ldd r18,Y+1
 1475 06e6 3A81      		ldd r19,Y+2
 1476 06e8 F201      		movw r30,r4
 1477 06ea 0995      		icall
 1478 06ec 8823      		tst r24
 1479 06ee 01F0      		breq .L153
 1480               	.LM208:
 1481 06f0 020D      		add r16,r2
 1482 06f2 131D      		adc r17,r3
 1483               	.LM209:
 1484 06f4 8B81      		ldd r24,Y+3
 1485 06f6 9C81      		ldd r25,Y+4
 1486 06f8 800F      		add r24,r16
 1487 06fa 911F      		adc r25,r17
 1488 06fc 2B81      		ldd r18,Y+3
 1489 06fe 3C81      		ldd r19,Y+4
 1490 0700 8217      		cp r24,r18
 1491 0702 9307      		cpc r25,r19
 1492 0704 00F0      		brlo .L153
 1493 0706 8C0C      		add r8,r12
 1494 0708 9D1C      		adc r9,r13
 1495 070a AE1C      		adc r10,r14
 1496 070c BF1C      		adc r11,r15
 1497 070e 00C0      		rjmp .L154
 1498               	.LVL107:
 1499               	.L152:
 1500 0710 80E0      		ldi r24,lo8(0)
 1501 0712 00C0      		rjmp .L155
 1502               	.LVL108:
 1503               	.L153:
 1504 0714 81E0      		ldi r24,lo8(1)
 1505               	.LVL109:
 1506               	.L155:
 1507               	/* epilogue start */
 1508               	.LM210:
 1509 0716 0F90      		pop __tmp_reg__
 1510 0718 0F90      		pop __tmp_reg__
 1511 071a 0F90      		pop __tmp_reg__
 1512 071c 0F90      		pop __tmp_reg__
 1513 071e CF91      		pop r28
 1514 0720 DF91      		pop r29
 1515 0722 1F91      		pop r17
 1516 0724 0F91      		pop r16
 1517               	.LVL110:
 1518 0726 FF90      		pop r15
 1519 0728 EF90      		pop r14
 1520               	.LVL111:
 1521 072a DF90      		pop r13
 1522 072c CF90      		pop r12
 1523 072e BF90      		pop r11
 1524 0730 AF90      		pop r10
 1525 0732 9F90      		pop r9
 1526 0734 8F90      		pop r8
 1527               	.LVL112:
 1528 0736 7F90      		pop r7
 1529 0738 6F90      		pop r6
 1530               	.LVL113:
 1531 073a 5F90      		pop r5
 1532 073c 4F90      		pop r4
 1533               	.LVL114:
 1534 073e 3F90      		pop r3
 1535 0740 2F90      		pop r2
 1536 0742 0895      		ret
 1537               	.LFE9:
 1539               	.global	sd_raw_init
 1541               	sd_raw_init:
 1542               	.LFB2:
 1543               	.LM211:
 1544 0744 0F93      		push r16
 1545 0746 1F93      		push r17
 1546 0748 CF93      		push r28
 1547 074a DF93      		push r29
 1548               	/* prologue: function */
 1549               	/* frame size = 0 */
 1550               	.LM212:
 1551 074c 229A      		sbi 36-32,2
 1552               	.LM213:
 1553 074e 219A      		sbi 36-32,1
 1554               	.LM214:
 1555 0750 209A      		sbi 36-32,0
 1556               	.LM215:
 1557 0752 2398      		cbi 36-32,3
 1558               	.LM216:
 1559 0754 289A      		sbi 37-32,0
 1560               	.LM217:
 1561 0756 83E5      		ldi r24,lo8(83)
 1562 0758 8CBD      		out 76-32,r24
 1563               	.LM218:
 1564 075a 8DB5      		in r24,77-32
 1565 075c 8E7F      		andi r24,lo8(-2)
 1566 075e 8DBD      		out 77-32,r24
 1567               	.LM219:
 1568 0760 1092 0000 		sts sd_raw_card_type,__zero_reg__
 1569 0764 90E0      		ldi r25,lo8(0)
 1570               	.LVL115:
 1571               	.LBB145:
 1572               	.LBB146:
 1573               	.LBB147:
 1574               	.LM220:
 1575 0766 2FEF      		ldi r18,lo8(-1)
 1576               	.L159:
 1577 0768 2EBD      		out 78-32,r18
 1578               	.L158:
 1579               	.LM221:
 1580 076a 0DB4      		in __tmp_reg__,77-32
 1581 076c 07FE      		sbrs __tmp_reg__,7
 1582 076e 00C0      		rjmp .L158
 1583               	.LM222:
 1584 0770 8DB5      		in r24,77-32
 1585 0772 8F77      		andi r24,lo8(127)
 1586 0774 8DBD      		out 77-32,r24
 1587               	.LM223:
 1588 0776 8EB5      		in r24,78-32
 1589               	.LBE147:
 1590               	.LBE146:
 1591               	.LM224:
 1592 0778 9F5F      		subi r25,lo8(-(1))
 1593 077a 9A30      		cpi r25,lo8(10)
 1594 077c 01F4      		brne .L159
 1595               	.LBE145:
 1596               	.LM225:
 1597 077e 2898      		cbi 37-32,0
 1598 0780 C0E0      		ldi r28,lo8(0)
 1599 0782 D0E0      		ldi r29,hi8(0)
 1600               	.LVL116:
 1601               	.L163:
 1602               	.LBB148:
 1603               	.LM226:
 1604 0784 80E0      		ldi r24,lo8(0)
 1605 0786 40E0      		ldi r20,lo8(0)
 1606 0788 50E0      		ldi r21,hi8(0)
 1607 078a 60E0      		ldi r22,hlo8(0)
 1608 078c 70E0      		ldi r23,hhi8(0)
 1609 078e 0E94 0000 		call sd_raw_send_command
 1610               	.LVL117:
 1611 0792 182F      		mov r17,r24
 1612               	.LM227:
 1613 0794 8130      		cpi r24,lo8(1)
 1614 0796 01F0      		breq .L160
 1615               	.LVL118:
 1616               	.LM228:
 1617 0798 81E0      		ldi r24,hi8(511)
 1618 079a CF3F      		cpi r28,lo8(511)
 1619 079c D807      		cpc r29,r24
 1620               	.LVL119:
 1621 079e 01F4      		brne .+2
 1622 07a0 00C0      		rjmp .L176
 1623               	.L161:
 1624               	.LM229:
 1625 07a2 2196      		adiw r28,1
 1626 07a4 00C0      		rjmp .L163
 1627               	.LVL120:
 1628               	.L160:
 1629               	.LBE148:
 1630               	.LM230:
 1631 07a6 87E3      		ldi r24,lo8(55)
 1632               	.LVL121:
 1633 07a8 40E0      		ldi r20,lo8(0)
 1634 07aa 50E0      		ldi r21,hi8(0)
 1635 07ac 60E0      		ldi r22,hlo8(0)
 1636 07ae 70E0      		ldi r23,hhi8(0)
 1637 07b0 0E94 0000 		call sd_raw_send_command
 1638               	.LM231:
 1639 07b4 89E2      		ldi r24,lo8(41)
 1640 07b6 40E0      		ldi r20,lo8(0)
 1641 07b8 50E0      		ldi r21,hi8(0)
 1642 07ba 60E0      		ldi r22,hlo8(0)
 1643 07bc 70E0      		ldi r23,hhi8(0)
 1644 07be 0E94 0000 		call sd_raw_send_command
 1645               	.LM232:
 1646 07c2 82FD      		sbrc r24,2
 1647 07c4 00C0      		rjmp .L164
 1648               	.LM233:
 1649 07c6 1093 0000 		sts sd_raw_card_type,r17
 1650               	.L164:
 1651               	.LBB149:
 1652               	.LM234:
 1653 07ca 8091 0000 		lds r24,sd_raw_card_type
 1654 07ce 082F      		mov r16,r24
 1655 07d0 10E0      		ldi r17,lo8(0)
 1656               	.LVL122:
 1657 07d2 0370      		andi r16,lo8(3)
 1658 07d4 1070      		andi r17,hi8(3)
 1659 07d6 C0E0      		ldi r28,lo8(0)
 1660 07d8 D0E0      		ldi r29,hi8(0)
 1661               	.LVL123:
 1662               	.L169:
 1663 07da 0115      		cp r16,__zero_reg__
 1664 07dc 1105      		cpc r17,__zero_reg__
 1665 07de 01F0      		breq .L165
 1666               	.LBB150:
 1667               	.LM235:
 1668 07e0 87E3      		ldi r24,lo8(55)
 1669 07e2 40E0      		ldi r20,lo8(0)
 1670 07e4 50E0      		ldi r21,hi8(0)
 1671 07e6 60E0      		ldi r22,hlo8(0)
 1672 07e8 70E0      		ldi r23,hhi8(0)
 1673 07ea 0E94 0000 		call sd_raw_send_command
 1674               	.LM236:
 1675 07ee 89E2      		ldi r24,lo8(41)
 1676 07f0 00C0      		rjmp .L175
 1677               	.L165:
 1678               	.LBE150:
 1679               	.LM237:
 1680 07f2 81E0      		ldi r24,lo8(1)
 1681               	.L175:
 1682 07f4 40E0      		ldi r20,lo8(0)
 1683 07f6 50E0      		ldi r21,hi8(0)
 1684 07f8 60E0      		ldi r22,hlo8(0)
 1685 07fa 70E0      		ldi r23,hhi8(0)
 1686 07fc 0E94 0000 		call sd_raw_send_command
 1687               	.LM238:
 1688 0800 80FF      		sbrs r24,0
 1689 0802 00C0      		rjmp .L167
 1690               	.LVL124:
 1691               	.LM239:
 1692 0804 8FE7      		ldi r24,hi8(32767)
 1693 0806 CF3F      		cpi r28,lo8(32767)
 1694 0808 D807      		cpc r29,r24
 1695               	.LVL125:
 1696 080a 01F0      		breq .L176
 1697               	.L168:
 1698               	.LM240:
 1699 080c 2196      		adiw r28,1
 1700 080e 00C0      		rjmp .L169
 1701               	.LVL126:
 1702               	.L167:
 1703               	.LBE149:
 1704               	.LM241:
 1705 0810 80E1      		ldi r24,lo8(16)
 1706               	.LVL127:
 1707 0812 40E0      		ldi r20,lo8(512)
 1708 0814 52E0      		ldi r21,hi8(512)
 1709 0816 60E0      		ldi r22,hlo8(512)
 1710 0818 70E0      		ldi r23,hhi8(512)
 1711 081a 0E94 0000 		call sd_raw_send_command
 1712 081e 8823      		tst r24
 1713 0820 01F0      		breq .L170
 1714               	.LVL128:
 1715               	.L176:
 1716               	.LM242:
 1717 0822 289A      		sbi 37-32,0
 1718 0824 80E0      		ldi r24,lo8(0)
 1719 0826 00C0      		rjmp .L162
 1720               	.LVL129:
 1721               	.L170:
 1722               	.LM243:
 1723 0828 289A      		sbi 37-32,0
 1724               	.LM244:
 1725 082a 8CB5      		in r24,76-32
 1726 082c 8C7F      		andi r24,lo8(-4)
 1727 082e 8CBD      		out 76-32,r24
 1728               	.LM245:
 1729 0830 8DB5      		in r24,77-32
 1730 0832 8160      		ori r24,lo8(1)
 1731 0834 8DBD      		out 77-32,r24
 1732               	.LM246:
 1733 0836 8FEF      		ldi r24,lo8(-1)
 1734 0838 9FEF      		ldi r25,hi8(-1)
 1735 083a AFEF      		ldi r26,hlo8(-1)
 1736 083c BFEF      		ldi r27,hhi8(-1)
 1737 083e 8093 0000 		sts raw_block_address,r24
 1738 0842 9093 0000 		sts (raw_block_address)+1,r25
 1739 0846 A093 0000 		sts (raw_block_address)+2,r26
 1740 084a B093 0000 		sts (raw_block_address)+3,r27
 1741               	.LM247:
 1742 084e 81E0      		ldi r24,lo8(1)
 1743 0850 8093 0000 		sts raw_block_written,r24
 1744               	.LM248:
 1745 0854 60E0      		ldi r22,lo8(0)
 1746 0856 70E0      		ldi r23,hi8(0)
 1747 0858 80E0      		ldi r24,hlo8(0)
 1748 085a 90E0      		ldi r25,hhi8(0)
 1749 085c 40E0      		ldi r20,lo8(raw_block)
 1750 085e 50E0      		ldi r21,hi8(raw_block)
 1751 0860 20E0      		ldi r18,lo8(512)
 1752 0862 32E0      		ldi r19,hi8(512)
 1753 0864 0E94 0000 		call sd_raw_read
 1754 0868 8111      		cpse r24,__zero_reg__
 1755 086a 81E0      		ldi r24,lo8(1)
 1756               	.LVL130:
 1757               	.L162:
 1758               	/* epilogue start */
 1759               	.LM249:
 1760 086c DF91      		pop r29
 1761 086e CF91      		pop r28
 1762               	.LVL131:
 1763 0870 1F91      		pop r17
 1764               	.LVL132:
 1765 0872 0F91      		pop r16
 1766 0874 0895      		ret
 1767               	.LFE2:
 1769               	.global	sd_raw_write_interval
 1771               	sd_raw_write_interval:
 1772               	.LFB11:
 1773               	.LM250:
 1774               	.LVL133:
 1775 0876 4F92      		push r4
 1776 0878 5F92      		push r5
 1777 087a 6F92      		push r6
 1778 087c 7F92      		push r7
 1779 087e 8F92      		push r8
 1780 0880 9F92      		push r9
 1781 0882 AF92      		push r10
 1782 0884 BF92      		push r11
 1783 0886 CF92      		push r12
 1784 0888 DF92      		push r13
 1785 088a EF92      		push r14
 1786               	.LVL134:
 1787 088c FF92      		push r15
 1788 088e 0F93      		push r16
 1789               	.LVL135:
 1790 0890 1F93      		push r17
 1791 0892 CF93      		push r28
 1792 0894 DF93      		push r29
 1793               	/* prologue: function */
 1794               	/* frame size = 0 */
 1795 0896 5B01      		movw r10,r22
 1796 0898 6C01      		movw r12,r24
 1797 089a 4A01      		movw r8,r20
 1798 089c E901      		movw r28,r18
 1799 089e 3801      		movw r6,r16
 1800               	.LVL136:
 1801 08a0 2701      		movw r4,r14
 1802               	.LVL137:
 1803               	.LM251:
 1804 08a2 4115      		cp r20,__zero_reg__
 1805 08a4 5105      		cpc r21,__zero_reg__
 1806 08a6 01F0      		breq .L178
 1807               	.LVL138:
 1808 08a8 0115      		cp r16,__zero_reg__
 1809 08aa 1105      		cpc r17,__zero_reg__
 1810 08ac 01F0      		breq .L178
 1811               	.LVL139:
 1812               	.LM252:
 1813 08ae FF24      		clr r15
 1814               	.LVL140:
 1815 08b0 2115      		cp r18,__zero_reg__
 1816 08b2 3105      		cpc r19,__zero_reg__
 1817 08b4 01F4      		brne .L186
 1818               	.LVL141:
 1819 08b6 FF24      		clr r15
 1820 08b8 F394      		inc r15
 1821 08ba 00C0      		rjmp .L186
 1822               	.LVL142:
 1823               	.L183:
 1824               	.LBB151:
 1825               	.LM253:
 1826 08bc C401      		movw r24,r8
 1827 08be B601      		movw r22,r12
 1828 08c0 A501      		movw r20,r10
 1829 08c2 9201      		movw r18,r4
 1830 08c4 F301      		movw r30,r6
 1831 08c6 0995      		icall
 1832               	.LVL143:
 1833 08c8 8C01      		movw r16,r24
 1834               	.LM254:
 1835 08ca 0097      		sbiw r24,0
 1836 08cc 01F0      		breq .L181
 1837               	.LVL144:
 1838               	.LM255:
 1839 08ce FF20      		tst r15
 1840 08d0 01F4      		brne .L182
 1841 08d2 C817      		cp r28,r24
 1842 08d4 D907      		cpc r29,r25
 1843 08d6 00F0      		brlo .L178
 1844               	.L182:
 1845               	.LM256:
 1846 08d8 C601      		movw r24,r12
 1847 08da B501      		movw r22,r10
 1848 08dc A401      		movw r20,r8
 1849 08de 9801      		movw r18,r16
 1850 08e0 0E94 0000 		call sd_raw_write
 1851               	.LVL145:
 1852 08e4 8823      		tst r24
 1853 08e6 01F0      		breq .L178
 1854               	.LM257:
 1855 08e8 C801      		movw r24,r16
 1856 08ea A0E0      		ldi r26,lo8(0)
 1857 08ec B0E0      		ldi r27,hi8(0)
 1858               	.LVL146:
 1859 08ee A80E      		add r10,r24
 1860 08f0 B91E      		adc r11,r25
 1861 08f2 CA1E      		adc r12,r26
 1862 08f4 DB1E      		adc r13,r27
 1863               	.LM258:
 1864 08f6 C01B      		sub r28,r16
 1865 08f8 D10B      		sbc r29,r17
 1866               	.LVL147:
 1867               	.L186:
 1868               	.LBE151:
 1869               	.LM259:
 1870 08fa FF20      		tst r15
 1871 08fc 01F4      		brne .L183
 1872 08fe 2097      		sbiw r28,0
 1873 0900 01F4      		brne .L183
 1874 0902 00C0      		rjmp .L181
 1875               	.LVL148:
 1876               	.L178:
 1877 0904 80E0      		ldi r24,lo8(0)
 1878 0906 00C0      		rjmp .L184
 1879               	.LVL149:
 1880               	.L181:
 1881 0908 81E0      		ldi r24,lo8(1)
 1882               	.LVL150:
 1883               	.L184:
 1884               	/* epilogue start */
 1885               	.LM260:
 1886 090a DF91      		pop r29
 1887 090c CF91      		pop r28
 1888               	.LVL151:
 1889 090e 1F91      		pop r17
 1890 0910 0F91      		pop r16
 1891               	.LVL152:
 1892 0912 FF90      		pop r15
 1893               	.LVL153:
 1894 0914 EF90      		pop r14
 1895 0916 DF90      		pop r13
 1896 0918 CF90      		pop r12
 1897 091a BF90      		pop r11
 1898 091c AF90      		pop r10
 1899               	.LVL154:
 1900 091e 9F90      		pop r9
 1901 0920 8F90      		pop r8
 1902               	.LVL155:
 1903 0922 7F90      		pop r7
 1904 0924 6F90      		pop r6
 1905               	.LVL156:
 1906 0926 5F90      		pop r5
 1907 0928 4F90      		pop r4
 1908               	.LVL157:
 1909 092a 0895      		ret
 1910               	.LFE11:
 1912               		.lcomm raw_block,512
 1913               		.lcomm raw_block_address,4
 1914               		.lcomm raw_block_written,1
 1915               		.lcomm sd_raw_card_type,1
 2012               	.Letext0:
DEFINED SYMBOLS
                            *ABS*:00000000 sd_raw.c
/var/folders/hh/hhtmCPxAFD0g-dt-xVOMP++++TI/-Tmp-//ccITvlNb.s:2      *ABS*:0000003f __SREG__
/var/folders/hh/hhtmCPxAFD0g-dt-xVOMP++++TI/-Tmp-//ccITvlNb.s:3      *ABS*:0000003e __SP_H__
/var/folders/hh/hhtmCPxAFD0g-dt-xVOMP++++TI/-Tmp-//ccITvlNb.s:4      *ABS*:0000003d __SP_L__
/var/folders/hh/hhtmCPxAFD0g-dt-xVOMP++++TI/-Tmp-//ccITvlNb.s:5      *ABS*:00000034 __CCP__
/var/folders/hh/hhtmCPxAFD0g-dt-xVOMP++++TI/-Tmp-//ccITvlNb.s:6      *ABS*:00000000 __tmp_reg__
/var/folders/hh/hhtmCPxAFD0g-dt-xVOMP++++TI/-Tmp-//ccITvlNb.s:7      *ABS*:00000001 __zero_reg__
/var/folders/hh/hhtmCPxAFD0g-dt-xVOMP++++TI/-Tmp-//ccITvlNb.s:18     .text:00000000 sd_raw_available
/var/folders/hh/hhtmCPxAFD0g-dt-xVOMP++++TI/-Tmp-//ccITvlNb.s:31     .text:00000004 sd_raw_locked
/var/folders/hh/hhtmCPxAFD0g-dt-xVOMP++++TI/-Tmp-//ccITvlNb.s:43     .text:00000008 sd_raw_send_command
/var/folders/hh/hhtmCPxAFD0g-dt-xVOMP++++TI/-Tmp-//ccITvlNb.s:254    .text:000000ce sd_raw_get_info
/var/folders/hh/hhtmCPxAFD0g-dt-xVOMP++++TI/-Tmp-//ccITvlNb.s:719    .text:00000308 sd_raw_write
/var/folders/hh/hhtmCPxAFD0g-dt-xVOMP++++TI/-Tmp-//ccITvlNb.s:1912   .bss:00000200 raw_block_address
/var/folders/hh/hhtmCPxAFD0g-dt-xVOMP++++TI/-Tmp-//ccITvlNb.s:1051   .text:000004b4 sd_raw_sync
                             .bss:00000000 raw_block
/var/folders/hh/hhtmCPxAFD0g-dt-xVOMP++++TI/-Tmp-//ccITvlNb.s:1085   .text:000004e8 sd_raw_read
/var/folders/hh/hhtmCPxAFD0g-dt-xVOMP++++TI/-Tmp-//ccITvlNb.s:1913   .bss:00000204 raw_block_written
/var/folders/hh/hhtmCPxAFD0g-dt-xVOMP++++TI/-Tmp-//ccITvlNb.s:1388   .text:00000664 sd_raw_read_interval
/var/folders/hh/hhtmCPxAFD0g-dt-xVOMP++++TI/-Tmp-//ccITvlNb.s:1541   .text:00000744 sd_raw_init
/var/folders/hh/hhtmCPxAFD0g-dt-xVOMP++++TI/-Tmp-//ccITvlNb.s:1914   .bss:00000205 sd_raw_card_type
/var/folders/hh/hhtmCPxAFD0g-dt-xVOMP++++TI/-Tmp-//ccITvlNb.s:1771   .text:00000876 sd_raw_write_interval

UNDEFINED SYMBOLS
memcpy
__do_clear_bss
